; ModuleID = '23/548.cpp'
source_filename = "23/548.cpp"
target datalayout = "e-m:e-p270:32:32-p271:32:32-p272:64:64-i64:64-f80:128-n8:16:32:64-S128"
target triple = "x86_64-pc-linux-gnu"

%"class.std::ios_base::Init" = type { i8 }
%"class.std::basic_istream" = type { i32 (...)**, i64, %"class.std::basic_ios" }
%"class.std::basic_ios" = type { %"class.std::ios_base", %"class.std::basic_ostream"*, i8, i8, %"class.std::basic_streambuf"*, %"class.std::ctype"*, %"class.std::num_put"*, %"class.std::num_get"* }
%"class.std::ios_base" = type { i32 (...)**, i64, i64, i32, i32, i32, %"struct.std::ios_base::_Callback_list"*, %"struct.std::ios_base::_Words", [8 x %"struct.std::ios_base::_Words"], i32, %"struct.std::ios_base::_Words"*, %"class.std::locale" }
%"struct.std::ios_base::_Callback_list" = type { %"struct.std::ios_base::_Callback_list"*, void (i32, %"class.std::ios_base"*, i32)*, i32, i32 }
%"struct.std::ios_base::_Words" = type { i8*, i64 }
%"class.std::locale" = type { %"class.std::locale::_Impl"* }
%"class.std::locale::_Impl" = type { i32, %"class.std::locale::facet"**, i64, %"class.std::locale::facet"**, i8** }
%"class.std::locale::facet" = type <{ i32 (...)**, i32, [4 x i8] }>
%"class.std::basic_ostream" = type { i32 (...)**, %"class.std::basic_ios" }
%"class.std::basic_streambuf" = type { i32 (...)**, i8*, i8*, i8*, i8*, i8*, i8*, %"class.std::locale" }
%"class.std::ctype" = type <{ %"class.std::locale::facet.base", [4 x i8], %struct.__locale_struct*, i8, [7 x i8], i32*, i32*, i16*, i8, [256 x i8], [256 x i8], i8, [6 x i8] }>
%"class.std::locale::facet.base" = type <{ i32 (...)**, i32 }>
%struct.__locale_struct = type { [13 x %struct.__locale_data*], i16*, i32*, i32*, [13 x i8*] }
%struct.__locale_data = type opaque
%"class.std::num_put" = type { %"class.std::locale::facet.base", [4 x i8] }
%"class.std::num_get" = type { %"class.std::locale::facet.base", [4 x i8] }

@_ZStL8__ioinit = internal global %"class.std::ios_base::Init" zeroinitializer, align 1
@__dso_handle = external hidden global i8
@_ZSt3cin = external dso_local global %"class.std::basic_istream", align 8
@_ZSt4cout = external dso_local global %"class.std::basic_ostream", align 8
@.str = private unnamed_addr constant [2 x i8] c" \00", align 1
@llvm.global_ctors = appending global [1 x { i32, void ()*, i8* }] [{ i32, void ()*, i8* } { i32 65535, void ()* @_GLOBAL__sub_I_548.cpp, i8* null }]

; Function Attrs: noinline uwtable
define internal void @__cxx_global_var_init() #0 section ".text.startup" {
  call void @_ZNSt8ios_base4InitC1Ev(%"class.std::ios_base::Init"* @_ZStL8__ioinit)
  %1 = call i32 @__cxa_atexit(void (i8*)* bitcast (void (%"class.std::ios_base::Init"*)* @_ZNSt8ios_base4InitD1Ev to void (i8*)*), i8* getelementptr inbounds (%"class.std::ios_base::Init", %"class.std::ios_base::Init"* @_ZStL8__ioinit, i32 0, i32 0), i8* @__dso_handle) #3
  ret void
}

declare dso_local void @_ZNSt8ios_base4InitC1Ev(%"class.std::ios_base::Init"*) unnamed_addr #1

; Function Attrs: nounwind
declare dso_local void @_ZNSt8ios_base4InitD1Ev(%"class.std::ios_base::Init"*) unnamed_addr #2

; Function Attrs: nounwind
declare dso_local i32 @__cxa_atexit(void (i8*)*, i8*, i8*) #3

; Function Attrs: noinline norecurse uwtable
define dso_local i32 @main() #4 {
  %1 = alloca i32, align 4
  %2 = alloca [105 x i8], align 16
  %3 = alloca i32, align 4
  %4 = alloca [105 x i32], align 16
  %5 = alloca i32, align 4
  %6 = alloca i32, align 4
  %7 = alloca i32, align 4
  %8 = alloca i32, align 4
  %9 = alloca i32, align 4
  %10 = alloca i32, align 4
  %11 = alloca i32, align 4
  %12 = alloca i32, align 4
  store i32 0, i32* %1, align 4
  %13 = bitcast [105 x i32]* %4 to i8*
  call void @llvm.memset.p0i8.i64(i8* align 16 %13, i8 0, i64 420, i1 false)
  store i32 1, i32* %5, align 4
  %14 = getelementptr inbounds [105 x i8], [105 x i8]* %2, i64 0, i64 0
  %15 = call dereferenceable(280) %"class.std::basic_istream"* @_ZNSi7getlineEPclc(%"class.std::basic_istream"* @_ZSt3cin, i8* %14, i64 101, i8 signext 10)
  %16 = getelementptr inbounds [105 x i8], [105 x i8]* %2, i64 0, i64 0
  %17 = call i64 @strlen(i8* %16) #7
  %18 = sub i64 %17, 1
  %19 = trunc i64 %18 to i32
  store i32 %19, i32* %3, align 4
  store i32 0, i32* %8, align 4
  br label %20

20:                                               ; preds = %45, %0
  %21 = load i32, i32* %8, align 4
  %22 = load i32, i32* %3, align 4
  %23 = icmp sle i32 %21, %22
  br i1 %23, label %24, label %48

24:                                               ; preds = %20
  %25 = load i32, i32* %8, align 4
  %26 = sext i32 %25 to i64
  %27 = getelementptr inbounds [105 x i8], [105 x i8]* %2, i64 0, i64 %26
  %28 = load i8, i8* %27, align 1
  %29 = sext i8 %28 to i32
  %30 = icmp ne i32 %29, 32
  br i1 %30, label %31, label %40

31:                                               ; preds = %24
  %32 = load i32, i32* %5, align 4
  %33 = sext i32 %32 to i64
  %34 = getelementptr inbounds [105 x i32], [105 x i32]* %4, i64 0, i64 %33
  %35 = load i32, i32* %34, align 4
  %36 = add nsw i32 %35, 1
  %37 = load i32, i32* %5, align 4
  %38 = sext i32 %37 to i64
  %39 = getelementptr inbounds [105 x i32], [105 x i32]* %4, i64 0, i64 %38
  store i32 %36, i32* %39, align 4
  br label %43

40:                                               ; preds = %24
  %41 = load i32, i32* %5, align 4
  %42 = add nsw i32 %41, 1
  store i32 %42, i32* %5, align 4
  br label %43

43:                                               ; preds = %40, %31
  %44 = load i32, i32* %5, align 4
  store i32 %44, i32* %6, align 4
  br label %45

45:                                               ; preds = %43
  %46 = load i32, i32* %8, align 4
  %47 = add nsw i32 %46, 1
  store i32 %47, i32* %8, align 4
  br label %20

48:                                               ; preds = %20
  %49 = load i32, i32* %3, align 4
  store i32 %49, i32* %9, align 4
  %50 = load i32, i32* %6, align 4
  store i32 %50, i32* %10, align 4
  br label %51

51:                                               ; preds = %84, %48
  %52 = load i32, i32* %10, align 4
  %53 = icmp sge i32 %52, 2
  br i1 %53, label %54, label %87

54:                                               ; preds = %51
  %55 = load i32, i32* %9, align 4
  %56 = load i32, i32* %10, align 4
  %57 = sext i32 %56 to i64
  %58 = getelementptr inbounds [105 x i32], [105 x i32]* %4, i64 0, i64 %57
  %59 = load i32, i32* %58, align 4
  %60 = sub nsw i32 %55, %59
  %61 = add nsw i32 %60, 1
  store i32 %61, i32* %11, align 4
  br label %62

62:                                               ; preds = %72, %54
  %63 = load i32, i32* %11, align 4
  %64 = load i32, i32* %9, align 4
  %65 = icmp sle i32 %63, %64
  br i1 %65, label %66, label %75

66:                                               ; preds = %62
  %67 = load i32, i32* %11, align 4
  %68 = sext i32 %67 to i64
  %69 = getelementptr inbounds [105 x i8], [105 x i8]* %2, i64 0, i64 %68
  %70 = load i8, i8* %69, align 1
  %71 = call dereferenceable(272) %"class.std::basic_ostream"* @_ZStlsISt11char_traitsIcEERSt13basic_ostreamIcT_ES5_c(%"class.std::basic_ostream"* dereferenceable(272) @_ZSt4cout, i8 signext %70)
  br label %72

72:                                               ; preds = %66
  %73 = load i32, i32* %11, align 4
  %74 = add nsw i32 %73, 1
  store i32 %74, i32* %11, align 4
  br label %62

75:                                               ; preds = %62
  %76 = load i32, i32* %9, align 4
  %77 = load i32, i32* %10, align 4
  %78 = sext i32 %77 to i64
  %79 = getelementptr inbounds [105 x i32], [105 x i32]* %4, i64 0, i64 %78
  %80 = load i32, i32* %79, align 4
  %81 = sub nsw i32 %76, %80
  %82 = sub nsw i32 %81, 1
  store i32 %82, i32* %9, align 4
  %83 = call dereferenceable(272) %"class.std::basic_ostream"* @_ZStlsISt11char_traitsIcEERSt13basic_ostreamIcT_ES5_PKc(%"class.std::basic_ostream"* dereferenceable(272) @_ZSt4cout, i8* getelementptr inbounds ([2 x i8], [2 x i8]* @.str, i64 0, i64 0))
  br label %84

84:                                               ; preds = %75
  %85 = load i32, i32* %10, align 4
  %86 = add nsw i32 %85, -1
  store i32 %86, i32* %10, align 4
  br label %51

87:                                               ; preds = %51
  store i32 0, i32* %12, align 4
  br label %88

88:                                               ; preds = %100, %87
  %89 = load i32, i32* %12, align 4
  %90 = getelementptr inbounds [105 x i32], [105 x i32]* %4, i64 0, i64 1
  %91 = load i32, i32* %90, align 4
  %92 = sub nsw i32 %91, 1
  %93 = icmp sle i32 %89, %92
  br i1 %93, label %94, label %103

94:                                               ; preds = %88
  %95 = load i32, i32* %12, align 4
  %96 = sext i32 %95 to i64
  %97 = getelementptr inbounds [105 x i8], [105 x i8]* %2, i64 0, i64 %96
  %98 = load i8, i8* %97, align 1
  %99 = call dereferenceable(272) %"class.std::basic_ostream"* @_ZStlsISt11char_traitsIcEERSt13basic_ostreamIcT_ES5_c(%"class.std::basic_ostream"* dereferenceable(272) @_ZSt4cout, i8 signext %98)
  br label %100

100:                                              ; preds = %94
  %101 = load i32, i32* %12, align 4
  %102 = add nsw i32 %101, 1
  store i32 %102, i32* %12, align 4
  br label %88

103:                                              ; preds = %88
  ret i32 0
}

; Function Attrs: argmemonly nounwind willreturn
declare void @llvm.memset.p0i8.i64(i8* nocapture writeonly, i8, i64, i1 immarg) #5

declare dso_local dereferenceable(280) %"class.std::basic_istream"* @_ZNSi7getlineEPclc(%"class.std::basic_istream"*, i8*, i64, i8 signext) #1

; Function Attrs: nounwind readonly
declare dso_local i64 @strlen(i8*) #6

declare dso_local dereferenceable(272) %"class.std::basic_ostream"* @_ZStlsISt11char_traitsIcEERSt13basic_ostreamIcT_ES5_c(%"class.std::basic_ostream"* dereferenceable(272), i8 signext) #1

declare dso_local dereferenceable(272) %"class.std::basic_ostream"* @_ZStlsISt11char_traitsIcEERSt13basic_ostreamIcT_ES5_PKc(%"class.std::basic_ostream"* dereferenceable(272), i8*) #1

; Function Attrs: noinline uwtable
define internal void @_GLOBAL__sub_I_548.cpp() #0 section ".text.startup" {
  call void @__cxx_global_var_init()
  ret void
}


!llvm.module.flags = !{!0}
!llvm.ident = !{!1}

!0 = !{i32 1, !"wchar_size", i32 4}
!1 = !{!"clang version 10.0.0-4ubuntu1 "}
